target datalayout = "e-m:e-p270:32:32-p271:32:32-p272:64:64-i64:64-i128:128-f80:128-n8:16:32:64-S128"
target triple = "x86_64-pc-linux-gnu"

%"struct.os::Linux::CPUPerfTicks" = type { i64, i64, i64, i64, i8 }

@.str.6 = private unnamed_addr constant [2 x i8] c"r\00", align 1
@.str.17 = private unnamed_addr constant [11 x i8] c"/proc/stat\00", align 1
@.str.18 = private unnamed_addr constant [41 x i8] c"cpu %lu %lu %lu %lu %lu %lu %lu %lu %lu \00", align 1
@.str.19 = private unnamed_addr constant [43 x i8] c"cpu%u %lu %lu %lu %lu %lu %lu %lu %lu %lu \00", align 1

; Function Attrs: mustprogress nounwind uwtable
define internal void @_ZL9next_lineP8_IO_FILE(ptr noundef %0) #1 {
  %2 = alloca ptr, align 8
  %3 = alloca i32, align 4
  store ptr %0, ptr %2, align 8
  br label %4

4:                                                ; preds = %13, %1
  %5 = load ptr, ptr %2, align 8
  %6 = call i32 @fgetc(ptr noundef %5)
  store i32 %6, ptr %3, align 4
  br label %7

7:                                                ; preds = %4
  %8 = load i32, ptr %3, align 4
  %9 = icmp ne i32 %8, 10
  br i1 %9, label %10, label %13

10:                                               ; preds = %7
  %11 = load i32, ptr %3, align 4
  %12 = icmp ne i32 %11, -1
  br label %13

13:                                               ; preds = %10, %7
  %14 = phi i1 [ false, %7 ], [ %12, %10 ]
  br i1 %14, label %4, label %15, !llvm.loop !10

15:                                               ; preds = %13
  ret void
}

; Function Attrs: mustprogress nounwind uwtable
define hidden noundef zeroext i1 @_ZN2os5Linux20get_tick_informationEPNS0_12CPUPerfTicksEi(ptr noundef %0, i32 noundef %1) #1 align 2 {
  %3 = alloca i1, align 1
  %4 = alloca ptr, align 8
  %5 = alloca i32, align 4
  %6 = alloca ptr, align 8
  %7 = alloca i64, align 8
  %8 = alloca i64, align 8
  %9 = alloca i64, align 8
  %10 = alloca i64, align 8
  %11 = alloca i64, align 8
  %12 = alloca i64, align 8
  %13 = alloca i64, align 8
  %14 = alloca i64, align 8
  %15 = alloca i64, align 8
  %16 = alloca i32, align 4
  %17 = alloca i32, align 4
  %18 = alloca i32, align 4
  %19 = alloca i32, align 4
  store ptr %0, ptr %4, align 8
  store i32 %1, ptr %5, align 4
  store i64 0, ptr %11, align 8
  store i64 0, ptr %12, align 8
  store i64 0, ptr %13, align 8
  store i64 0, ptr %14, align 8
  store i64 0, ptr %15, align 8
  store i32 -1, ptr %16, align 4
  %20 = load i32, ptr %5, align 4
  %21 = icmp eq i32 %20, -1
  %22 = select i1 %21, i32 4, i32 5
  store i32 %22, ptr %17, align 4
  %23 = load ptr, ptr %4, align 8
  call void @llvm.memset.p0.i64(ptr align 8 %23, i8 0, i64 40, i1 false)
  %24 = call noundef ptr @_ZN2os5fopenEPKcS1_(ptr noundef @.str.17, ptr noundef @.str.6)
  store ptr %24, ptr %6, align 8
  %25 = icmp eq ptr %24, null
  br i1 %25, label %26, label %27

26:                                               ; preds = %2
  store i1 false, ptr %3, align 1
  br label %106

27:                                               ; preds = %2
  %28 = load i32, ptr %5, align 4
  %29 = icmp eq i32 %28, -1
  br i1 %29, label %30, label %33

30:                                               ; preds = %27
  %31 = load ptr, ptr %6, align 8
  %32 = call i32 (ptr, ptr, ...) @__isoc99_fscanf(ptr noundef %31, ptr noundef @.str.18, ptr noundef %7, ptr noundef %8, ptr noundef %9, ptr noundef %10, ptr noundef %11, ptr noundef %12, ptr noundef %13, ptr noundef %14, ptr noundef %15)
  store i32 %32, ptr %18, align 4
  br label %47

33:                                               ; preds = %27
  %34 = load ptr, ptr %6, align 8
  call void @_ZL9next_lineP8_IO_FILE(ptr noundef %34)
  store i32 0, ptr %19, align 4
  br label %35

35:                                               ; preds = %41, %33
  %36 = load i32, ptr %19, align 4
  %37 = load i32, ptr %5, align 4
  %38 = icmp slt i32 %36, %37
  br i1 %38, label %39, label %44

39:                                               ; preds = %35
  %40 = load ptr, ptr %6, align 8
  call void @_ZL9next_lineP8_IO_FILE(ptr noundef %40)
  br label %41

41:                                               ; preds = %39
  %42 = load i32, ptr %19, align 4
  %43 = add nsw i32 %42, 1
  store i32 %43, ptr %19, align 4
  br label %35, !llvm.loop !9

44:                                               ; preds = %35
  %45 = load ptr, ptr %6, align 8
  %46 = call i32 (ptr, ptr, ...) @__isoc99_fscanf(ptr noundef %45, ptr noundef @.str.19, ptr noundef %16, ptr noundef %7, ptr noundef %8, ptr noundef %9, ptr noundef %10, ptr noundef %11, ptr noundef %12, ptr noundef %13, ptr noundef %14, ptr noundef %15)
  store i32 %46, ptr %18, align 4
  br label %47

47:                                               ; preds = %44, %30
  %48 = load ptr, ptr %6, align 8
  %49 = call i32 @fclose(ptr noundef %48)
  %50 = load i32, ptr %18, align 4
  %51 = load i32, ptr %17, align 4
  %52 = icmp slt i32 %50, %51
  br i1 %52, label %57, label %53

53:                                               ; preds = %47
  %54 = load i32, ptr %16, align 4
  %55 = load i32, ptr %5, align 4
  %56 = icmp ne i32 %54, %55
  br i1 %56, label %57, label %58

57:                                               ; preds = %53, %47
  store i1 false, ptr %3, align 1
  br label %106

58:                                               ; preds = %53
  %59 = load i64, ptr %7, align 8
  %60 = load i64, ptr %8, align 8
  %61 = add i64 %59, %60
  %62 = load ptr, ptr %4, align 8
  %63 = getelementptr inbounds %"struct.os::Linux::CPUPerfTicks", ptr %62, i32 0, i32 0
  store i64 %61, ptr %63, align 8
  %64 = load i64, ptr %9, align 8
  %65 = load i64, ptr %12, align 8
  %66 = add i64 %64, %65
  %67 = load i64, ptr %13, align 8
  %68 = add i64 %66, %67
  %69 = load ptr, ptr %4, align 8
  %70 = getelementptr inbounds %"struct.os::Linux::CPUPerfTicks", ptr %69, i32 0, i32 1
  store i64 %68, ptr %70, align 8
  %71 = load i64, ptr %7, align 8
  %72 = load i64, ptr %8, align 8
  %73 = add i64 %71, %72
  %74 = load i64, ptr %9, align 8
  %75 = add i64 %73, %74
  %76 = load i64, ptr %10, align 8
  %77 = add i64 %75, %76
  %78 = load i64, ptr %11, align 8
  %79 = add i64 %77, %78
  %80 = load i64, ptr %12, align 8
  %81 = add i64 %79, %80
  %82 = load i64, ptr %13, align 8
  %83 = add i64 %81, %82
  %84 = load i64, ptr %14, align 8
  %85 = add i64 %83, %84
  %86 = load i64, ptr %15, align 8
  %87 = add i64 %85, %86
  %88 = load ptr, ptr %4, align 8
  %89 = getelementptr inbounds %"struct.os::Linux::CPUPerfTicks", ptr %88, i32 0, i32 2
  store i64 %87, ptr %89, align 8
  %90 = load i32, ptr %18, align 4
  %91 = load i32, ptr %17, align 4
  %92 = add nsw i32 %91, 3
  %93 = icmp sgt i32 %90, %92
  br i1 %93, label %94, label %100

94:                                               ; preds = %58
  %95 = load i64, ptr %14, align 8
  %96 = load ptr, ptr %4, align 8
  %97 = getelementptr inbounds %"struct.os::Linux::CPUPerfTicks", ptr %96, i32 0, i32 3
  store i64 %95, ptr %97, align 8
  %98 = load ptr, ptr %4, align 8
  %99 = getelementptr inbounds %"struct.os::Linux::CPUPerfTicks", ptr %98, i32 0, i32 4
  store i8 1, ptr %99, align 8
  br label %105

100:                                              ; preds = %58
  %101 = load ptr, ptr %4, align 8
  %102 = getelementptr inbounds %"struct.os::Linux::CPUPerfTicks", ptr %101, i32 0, i32 3
  store i64 0, ptr %102, align 8
  %103 = load ptr, ptr %4, align 8
  %104 = getelementptr inbounds %"struct.os::Linux::CPUPerfTicks", ptr %103, i32 0, i32 4
  store i8 0, ptr %104, align 8
  br label %105

105:                                              ; preds = %100, %94
  store i1 true, ptr %3, align 1
  br label %106

106:                                              ; preds = %105, %57, %26
  %107 = load i1, ptr %3, align 1
  ret i1 %107
}