; Function Attrs: mustprogress nounwind uwtable
define hidden noundef zeroext i1 @_ZN2os5Linux20get_tick_informationEPNS0_12CPUPerfTicksEi(ptr nocapture noundef writeonly %0, i32 noundef %1) local_unnamed_addr #0 align 2 {
  %3 = alloca i64, align 8
  %4 = alloca i64, align 8
  %5 = alloca i64, align 8
  %6 = alloca i64, align 8
  %7 = alloca i64, align 8
  %8 = alloca i64, align 8
  %9 = alloca i64, align 8
  %10 = alloca i64, align 8
  %11 = alloca i64, align 8
  %12 = alloca i32, align 4
  store i64 0, ptr %7, align 8
  store i64 0, ptr %8, align 8
  store i64 0, ptr %9, align 8
  store i64 0, ptr %10, align 8
  store i64 0, ptr %11, align 8
  store i32 -1, ptr %12, align 4
  %13 = icmp eq i32 %1, -1
  %14 = select i1 %13, i32 4, i32 5
  tail call void @llvm.memset.p0.i64(ptr noundef nonnull align 8 dereferenceable(40) %0, i8 0, i64 40, i1 false)
  %15 = tail call noundef ptr @_ZN2os5fopenEPKcS1_(ptr noundef nonnull @.str.17, ptr noundef nonnull @.str.6) #26
  %16 = icmp eq ptr %15, null
  br i1 %16, label %54, label %17

17:                                               ; preds = %2
  br i1 %13, label %18, label %.preheader29

18:                                               ; preds = %17
  %19 = call i32 (ptr, ptr, ...) @__isoc99_fscanf(ptr noundef nonnull %15, ptr noundef nonnull @.str.18, ptr noundef nonnull %3, ptr noundef nonnull %4, ptr noundef nonnull %5, ptr noundef nonnull %6, ptr noundef nonnull %7, ptr noundef nonnull %8, ptr noundef nonnull %9, ptr noundef nonnull %10, ptr noundef nonnull %11) #26
  br label %26

.preheader29:                                     ; preds = %17, %.preheader29
  %20 = tail call i32 @fgetc(ptr noundef nonnull %15)
  switch i32 %20, label %.preheader29 [
    i32 -1, label %_ZL9next_lineP8_IO_FILE.exit
    i32 10, label %_ZL9next_lineP8_IO_FILE.exit
  ]

_ZL9next_lineP8_IO_FILE.exit:                     ; preds = %.preheader29, %.preheader29
  %21 = icmp sgt i32 %1, 0
  br i1 %21, label %.preheader, label %._crit_edge

.preheader:                                       ; preds = %_ZL9next_lineP8_IO_FILE.exit, %_ZL9next_lineP8_IO_FILE.exit28
  %.030 = phi i32 [ %24, %_ZL9next_lineP8_IO_FILE.exit28 ], [ 0, %_ZL9next_lineP8_IO_FILE.exit ]
  br label %22

22:                                               ; preds = %.preheader, %22
  %23 = tail call i32 @fgetc(ptr noundef nonnull %15)
  switch i32 %23, label %22 [
    i32 -1, label %_ZL9next_lineP8_IO_FILE.exit28
    i32 10, label %_ZL9next_lineP8_IO_FILE.exit28
  ]

_ZL9next_lineP8_IO_FILE.exit28:                   ; preds = %22, %22
  %24 = add nuw nsw i32 %.030, 1
  %exitcond.not = icmp eq i32 %24, %1
  br i1 %exitcond.not, label %._crit_edge, label %.preheader, !llvm.loop !9

._crit_edge:                                      ; preds = %_ZL9next_lineP8_IO_FILE.exit28, %_ZL9next_lineP8_IO_FILE.exit
  %25 = call i32 (ptr, ptr, ...) @__isoc99_fscanf(ptr noundef nonnull %15, ptr noundef nonnull @.str.19, ptr noundef nonnull %12, ptr noundef nonnull %3, ptr noundef nonnull %4, ptr noundef nonnull %5, ptr noundef nonnull %6, ptr noundef nonnull %7, ptr noundef nonnull %8, ptr noundef nonnull %9, ptr noundef nonnull %10, ptr noundef nonnull %11) #26
  br label %26

26:                                               ; preds = %._crit_edge, %18
  %.023 = phi i32 [ %19, %18 ], [ %25, %._crit_edge ]
  %27 = call i32 @fclose(ptr noundef nonnull %15)
  %28 = icmp sge i32 %.023, %14
  %29 = load i32, ptr %12, align 4
  %.not = icmp eq i32 %29, %1
  %or.cond = select i1 %28, i1 %.not, i1 false
  br i1 %or.cond, label %.sink.split, label %54

.sink.split:                                      ; preds = %26
  %30 = load i64, ptr %3, align 8
  %31 = load i64, ptr %4, align 8
  %32 = add i64 %31, %30
  store i64 %32, ptr %0, align 8
  %33 = load i64, ptr %5, align 8
  %34 = load i64, ptr %8, align 8
  %35 = add i64 %34, %33
  %36 = load i64, ptr %9, align 8
  %37 = add i64 %35, %36
  %38 = getelementptr inbounds i8, ptr %0, i64 8
  store i64 %37, ptr %38, align 8
  %39 = load i64, ptr %6, align 8
  %40 = load i64, ptr %7, align 8
  %41 = load i64, ptr %10, align 8
  %42 = load i64, ptr %11, align 8
  %43 = add i64 %35, %32
  %44 = add i64 %43, %36
  %45 = add i64 %44, %39
  %46 = add i64 %45, %40
  %47 = add i64 %46, %41
  %48 = add i64 %47, %42
  %49 = getelementptr inbounds i8, ptr %0, i64 16
  store i64 %48, ptr %49, align 8
  %50 = add nuw nsw i32 %14, 3
  %51 = icmp sgt i32 %.023, %50
  %52 = getelementptr inbounds i8, ptr %0, i64 24
  %53 = getelementptr inbounds i8, ptr %0, i64 32
  %. = select i1 %51, i64 %41, i64 0
  %.32 = zext i1 %51 to i8
  store i64 %., ptr %52, align 8
  store i8 %.32, ptr %53, align 8
  br label %54

54:                                               ; preds = %.sink.split, %26, %2
  %.024 = phi i1 [ false, %2 ], [ false, %26 ], [ true, %.sink.split ]
  ret i1 %.024
}